target datalayout = "e-m:e-p270:32:32-p271:32:32-p272:64:64-i64:64-i128:128-f80:128-n8:16:32:64-S128"
target triple = "x86_64-pc-linux-gnu"

%struct.mbedtls_asn1_buf = type { i32, i64, ptr }
%struct.mbedtls_x509_time = type { i32, i32, i32, i32, i32, i32 }
%struct.mbedtls_x509_crl_entry = type { %struct.mbedtls_asn1_buf, %struct.mbedtls_asn1_buf, %struct.mbedtls_x509_time, %struct.mbedtls_asn1_buf, ptr }

@.str = private unnamed_addr constant [122 x i8] c"generated/home/dtcxzyw/WorkSpace/Projects/compilers/llvm-opt-benchmark/bench/lief/bench_build/mbed_src/library/x509_crl.c\00", align 1

; Function Attrs: inlinehint nounwind uwtable
define internal i32 @mbedtls_error_add(i32 noundef %0, i32 noundef %1, ptr noundef %2, i32 noundef %3) #6 {
  %5 = alloca i32, align 4
  %6 = alloca i32, align 4
  %7 = alloca ptr, align 8
  %8 = alloca i32, align 4
  store i32 %0, ptr %5, align 4, !tbaa !12
  store i32 %1, ptr %6, align 4, !tbaa !12
  store ptr %2, ptr %7, align 8, !tbaa !8
  store i32 %3, ptr %8, align 4, !tbaa !12
  %9 = load i32, ptr %5, align 4, !tbaa !12
  %10 = load i32, ptr %6, align 4, !tbaa !12
  %11 = add nsw i32 %9, %10
  ret i32 %11
}

; Function Attrs: nounwind uwtable
define internal i32 @x509_get_crl_entry_ext(ptr noundef %0, ptr noundef %1, ptr noundef %2) #0 {
  %4 = alloca i32, align 4
  %5 = alloca ptr, align 8
  %6 = alloca ptr, align 8
  %7 = alloca ptr, align 8
  %8 = alloca i32, align 4
  %9 = alloca i64, align 8
  %10 = alloca i32, align 4
  store ptr %0, ptr %5, align 8, !tbaa !42
  store ptr %1, ptr %6, align 8, !tbaa !8
  store ptr %2, ptr %7, align 8, !tbaa !52
  call void @llvm.lifetime.start.p0(i64 4, ptr %8) #9
  store i32 -110, ptr %8, align 4, !tbaa !12
  call void @llvm.lifetime.start.p0(i64 8, ptr %9) #9
  store i64 0, ptr %9, align 8, !tbaa !10
  %11 = load ptr, ptr %6, align 8, !tbaa !8
  %12 = load ptr, ptr %5, align 8, !tbaa !42
  %13 = load ptr, ptr %12, align 8, !tbaa !8
  %14 = icmp ule ptr %11, %13
  br i1 %14, label %15, label %16

15:                                               ; preds = %3
  store i32 0, ptr %4, align 4
  store i32 1, ptr %10, align 4
  br label %86

16:                                               ; preds = %3
  %17 = load ptr, ptr %5, align 8, !tbaa !42
  %18 = load ptr, ptr %17, align 8, !tbaa !8
  %19 = load i8, ptr %18, align 1, !tbaa !47
  %20 = zext i8 %19 to i32
  %21 = load ptr, ptr %7, align 8, !tbaa !52
  %22 = getelementptr inbounds nuw %struct.mbedtls_asn1_buf, ptr %21, i32 0, i32 0
  store i32 %20, ptr %22, align 8, !tbaa !80
  %23 = load ptr, ptr %5, align 8, !tbaa !42
  %24 = load ptr, ptr %23, align 8, !tbaa !8
  %25 = load ptr, ptr %7, align 8, !tbaa !52
  %26 = getelementptr inbounds nuw %struct.mbedtls_asn1_buf, ptr %25, i32 0, i32 2
  store ptr %24, ptr %26, align 8, !tbaa !34
  %27 = load ptr, ptr %5, align 8, !tbaa !42
  %28 = load ptr, ptr %6, align 8, !tbaa !8
  %29 = load ptr, ptr %7, align 8, !tbaa !52
  %30 = getelementptr inbounds nuw %struct.mbedtls_asn1_buf, ptr %29, i32 0, i32 1
  %31 = call i32 @mbedtls_asn1_get_tag(ptr noundef %27, ptr noundef %28, ptr noundef %30, i32 noundef 48)
  store i32 %31, ptr %8, align 4, !tbaa !12
  %32 = icmp ne i32 %31, 0
  br i1 %32, label %33, label %42

33:                                               ; preds = %16
  %34 = load i32, ptr %8, align 4, !tbaa !12
  %35 = icmp eq i32 %34, -98
  br i1 %35, label %36, label %39

36:                                               ; preds = %33
  %37 = load ptr, ptr %7, align 8, !tbaa !52
  %38 = getelementptr inbounds nuw %struct.mbedtls_asn1_buf, ptr %37, i32 0, i32 2
  store ptr null, ptr %38, align 8, !tbaa !34
  store i32 0, ptr %4, align 4
  store i32 1, ptr %10, align 4
  br label %86

39:                                               ; preds = %33
  %40 = load i32, ptr %8, align 4, !tbaa !12
  %41 = call i32 @mbedtls_error_add(i32 noundef -9472, i32 noundef %40, ptr noundef @.str, i32 noundef 185)
  store i32 %41, ptr %4, align 4
  store i32 1, ptr %10, align 4
  br label %86

42:                                               ; preds = %16
  %43 = load ptr, ptr %5, align 8, !tbaa !42
  %44 = load ptr, ptr %43, align 8, !tbaa !8
  %45 = load ptr, ptr %7, align 8, !tbaa !52
  %46 = getelementptr inbounds nuw %struct.mbedtls_asn1_buf, ptr %45, i32 0, i32 1
  %47 = load i64, ptr %46, align 8, !tbaa !32
  %48 = getelementptr inbounds nuw i8, ptr %44, i64 %47
  store ptr %48, ptr %6, align 8, !tbaa !8
  %49 = load ptr, ptr %6, align 8, !tbaa !8
  %50 = load ptr, ptr %5, align 8, !tbaa !42
  %51 = load ptr, ptr %50, align 8, !tbaa !8
  %52 = load ptr, ptr %7, align 8, !tbaa !52
  %53 = getelementptr inbounds nuw %struct.mbedtls_asn1_buf, ptr %52, i32 0, i32 1
  %54 = load i64, ptr %53, align 8, !tbaa !32
  %55 = getelementptr inbounds nuw i8, ptr %51, i64 %54
  %56 = icmp ne ptr %49, %55
  br i1 %56, label %57, label %59

57:                                               ; preds = %42
  %58 = call i32 @mbedtls_error_add(i32 noundef -9472, i32 noundef -102, ptr noundef @.str, i32 noundef 192)
  store i32 %58, ptr %4, align 4
  store i32 1, ptr %10, align 4
  br label %86

59:                                               ; preds = %42
  br label %60

60:                                               ; preds = %73, %59
  %61 = load ptr, ptr %5, align 8, !tbaa !42
  %62 = load ptr, ptr %61, align 8, !tbaa !8
  %63 = load ptr, ptr %6, align 8, !tbaa !8
  %64 = icmp ult ptr %62, %63
  br i1 %64, label %65, label %78

65:                                               ; preds = %60
  %66 = load ptr, ptr %5, align 8, !tbaa !42
  %67 = load ptr, ptr %6, align 8, !tbaa !8
  %68 = call i32 @mbedtls_asn1_get_tag(ptr noundef %66, ptr noundef %67, ptr noundef %9, i32 noundef 48)
  store i32 %68, ptr %8, align 4, !tbaa !12
  %69 = icmp ne i32 %68, 0
  br i1 %69, label %70, label %73

70:                                               ; preds = %65
  %71 = load i32, ptr %8, align 4, !tbaa !12
  %72 = call i32 @mbedtls_error_add(i32 noundef -9472, i32 noundef %71, ptr noundef @.str, i32 noundef 198)
  store i32 %72, ptr %4, align 4
  store i32 1, ptr %10, align 4
  br label %86

73:                                               ; preds = %65
  %74 = load i64, ptr %9, align 8, !tbaa !10
  %75 = load ptr, ptr %5, align 8, !tbaa !42
  %76 = load ptr, ptr %75, align 8, !tbaa !8
  %77 = getelementptr inbounds nuw i8, ptr %76, i64 %74
  store ptr %77, ptr %75, align 8, !tbaa !8
  br label %60, !llvm.loop !81

78:                                               ; preds = %60
  %79 = load ptr, ptr %5, align 8, !tbaa !42
  %80 = load ptr, ptr %79, align 8, !tbaa !8
  %81 = load ptr, ptr %6, align 8, !tbaa !8
  %82 = icmp ne ptr %80, %81
  br i1 %82, label %83, label %85

83:                                               ; preds = %78
  %84 = call i32 @mbedtls_error_add(i32 noundef -9472, i32 noundef -102, ptr noundef @.str, i32 noundef 206)
  store i32 %84, ptr %4, align 4
  store i32 1, ptr %10, align 4
  br label %86

85:                                               ; preds = %78
  store i32 0, ptr %4, align 4
  store i32 1, ptr %10, align 4
  br label %86

86:                                               ; preds = %85, %83, %70, %57, %39, %36, %15
  call void @llvm.lifetime.end.p0(i64 8, ptr %9) #9
  call void @llvm.lifetime.end.p0(i64 4, ptr %8) #9
  %87 = load i32, ptr %4, align 4
  ret i32 %87
}

; Function Attrs: nounwind uwtable
define internal i32 @x509_get_entries(ptr noundef %0, ptr noundef %1, ptr noundef %2) #0 {
  %4 = alloca i32, align 4
  %5 = alloca ptr, align 8
  %6 = alloca ptr, align 8
  %7 = alloca ptr, align 8
  %8 = alloca i32, align 4
  %9 = alloca i64, align 8
  %10 = alloca ptr, align 8
  %11 = alloca i32, align 4
  %12 = alloca i64, align 8
  %13 = alloca ptr, align 8
  store ptr %0, ptr %5, align 8, !tbaa !42
  store ptr %1, ptr %6, align 8, !tbaa !8
  store ptr %2, ptr %7, align 8, !tbaa !38
  call void @llvm.lifetime.start.p0(i64 4, ptr %8) #9
  store i32 -110, ptr %8, align 4, !tbaa !12
  call void @llvm.lifetime.start.p0(i64 8, ptr %9) #9
  call void @llvm.lifetime.start.p0(i64 8, ptr %10) #9
  %14 = load ptr, ptr %7, align 8, !tbaa !38
  store ptr %14, ptr %10, align 8, !tbaa !38
  %15 = load ptr, ptr %5, align 8, !tbaa !42
  %16 = load ptr, ptr %15, align 8, !tbaa !8
  %17 = load ptr, ptr %6, align 8, !tbaa !8
  %18 = icmp eq ptr %16, %17
  br i1 %18, label %19, label %20

19:                                               ; preds = %3
  store i32 0, ptr %4, align 4
  store i32 1, ptr %11, align 4
  br label %118

20:                                               ; preds = %3
  %21 = load ptr, ptr %5, align 8, !tbaa !42
  %22 = load ptr, ptr %6, align 8, !tbaa !8
  %23 = call i32 @mbedtls_asn1_get_tag(ptr noundef %21, ptr noundef %22, ptr noundef %9, i32 noundef 48)
  store i32 %23, ptr %8, align 4, !tbaa !12
  %24 = icmp ne i32 %23, 0
  br i1 %24, label %25, label %31

25:                                               ; preds = %20
  %26 = load i32, ptr %8, align 4, !tbaa !12
  %27 = icmp eq i32 %26, -98
  br i1 %27, label %28, label %29

28:                                               ; preds = %25
  store i32 0, ptr %4, align 4
  store i32 1, ptr %11, align 4
  br label %118

29:                                               ; preds = %25
  %30 = load i32, ptr %8, align 4, !tbaa !12
  store i32 %30, ptr %4, align 4
  store i32 1, ptr %11, align 4
  br label %118

31:                                               ; preds = %20
  %32 = load ptr, ptr %5, align 8, !tbaa !42
  %33 = load ptr, ptr %32, align 8, !tbaa !8
  %34 = load i64, ptr %9, align 8, !tbaa !10
  %35 = getelementptr inbounds nuw i8, ptr %33, i64 %34
  store ptr %35, ptr %6, align 8, !tbaa !8
  br label %36

36:                                               ; preds = %116, %31
  %37 = load ptr, ptr %5, align 8, !tbaa !42
  %38 = load ptr, ptr %37, align 8, !tbaa !8
  %39 = load ptr, ptr %6, align 8, !tbaa !8
  %40 = icmp ult ptr %38, %39
  br i1 %40, label %41, label %117

41:                                               ; preds = %36
  call void @llvm.lifetime.start.p0(i64 8, ptr %12) #9
  call void @llvm.lifetime.start.p0(i64 8, ptr %13) #9
  %42 = load ptr, ptr %5, align 8, !tbaa !42
  %43 = load ptr, ptr %42, align 8, !tbaa !8
  %44 = load i8, ptr %43, align 1, !tbaa !47
  %45 = zext i8 %44 to i32
  %46 = load ptr, ptr %10, align 8, !tbaa !38
  %47 = getelementptr inbounds nuw %struct.mbedtls_x509_crl_entry, ptr %46, i32 0, i32 0
  %48 = getelementptr inbounds nuw %struct.mbedtls_asn1_buf, ptr %47, i32 0, i32 0
  store i32 %45, ptr %48, align 8, !tbaa !48
  %49 = load ptr, ptr %5, align 8, !tbaa !42
  %50 = load ptr, ptr %6, align 8, !tbaa !8
  %51 = call i32 @mbedtls_asn1_get_tag(ptr noundef %49, ptr noundef %50, ptr noundef %12, i32 noundef 48)
  store i32 %51, ptr %8, align 4, !tbaa !12
  %52 = icmp ne i32 %51, 0
  br i1 %52, label %53, label %55

53:                                               ; preds = %41
  %54 = load i32, ptr %8, align 4, !tbaa !12
  store i32 %54, ptr %4, align 4
  store i32 1, ptr %11, align 4
  br label %114

55:                                               ; preds = %41
  %56 = load ptr, ptr %5, align 8, !tbaa !42
  %57 = load ptr, ptr %56, align 8, !tbaa !8
  %58 = load ptr, ptr %10, align 8, !tbaa !38
  %59 = getelementptr inbounds nuw %struct.mbedtls_x509_crl_entry, ptr %58, i32 0, i32 0
  %60 = getelementptr inbounds nuw %struct.mbedtls_asn1_buf, ptr %59, i32 0, i32 2
  store ptr %57, ptr %60, align 8, !tbaa !49
  %61 = load i64, ptr %12, align 8, !tbaa !10
  %62 = load ptr, ptr %10, align 8, !tbaa !38
  %63 = getelementptr inbounds nuw %struct.mbedtls_x509_crl_entry, ptr %62, i32 0, i32 0
  %64 = getelementptr inbounds nuw %struct.mbedtls_asn1_buf, ptr %63, i32 0, i32 1
  store i64 %61, ptr %64, align 8, !tbaa !50
  %65 = load ptr, ptr %5, align 8, !tbaa !42
  %66 = load ptr, ptr %65, align 8, !tbaa !8
  %67 = load i64, ptr %12, align 8, !tbaa !10
  %68 = getelementptr inbounds nuw i8, ptr %66, i64 %67
  store ptr %68, ptr %13, align 8, !tbaa !8
  %69 = load ptr, ptr %5, align 8, !tbaa !42
  %70 = load ptr, ptr %13, align 8, !tbaa !8
  %71 = load ptr, ptr %10, align 8, !tbaa !38
  %72 = getelementptr inbounds nuw %struct.mbedtls_x509_crl_entry, ptr %71, i32 0, i32 1
  %73 = call i32 @mbedtls_x509_get_serial(ptr noundef %69, ptr noundef %70, ptr noundef %72)
  store i32 %73, ptr %8, align 4, !tbaa !12
  %74 = icmp ne i32 %73, 0
  br i1 %74, label %75, label %77

75:                                               ; preds = %55
  %76 = load i32, ptr %8, align 4, !tbaa !12
  store i32 %76, ptr %4, align 4
  store i32 1, ptr %11, align 4
  br label %114

77:                                               ; preds = %55
  %78 = load ptr, ptr %5, align 8, !tbaa !42
  %79 = load ptr, ptr %13, align 8, !tbaa !8
  %80 = load ptr, ptr %10, align 8, !tbaa !38
  %81 = getelementptr inbounds nuw %struct.mbedtls_x509_crl_entry, ptr %80, i32 0, i32 2
  %82 = call i32 @mbedtls_x509_get_time(ptr noundef %78, ptr noundef %79, ptr noundef %81)
  store i32 %82, ptr %8, align 4, !tbaa !12
  %83 = icmp ne i32 %82, 0
  br i1 %83, label %84, label %86

84:                                               ; preds = %77
  %85 = load i32, ptr %8, align 4, !tbaa !12
  store i32 %85, ptr %4, align 4
  store i32 1, ptr %11, align 4
  br label %114

86:                                               ; preds = %77
  %87 = load ptr, ptr %5, align 8, !tbaa !42
  %88 = load ptr, ptr %13, align 8, !tbaa !8
  %89 = load ptr, ptr %10, align 8, !tbaa !38
  %90 = getelementptr inbounds nuw %struct.mbedtls_x509_crl_entry, ptr %89, i32 0, i32 3
  %91 = call i32 @x509_get_crl_entry_ext(ptr noundef %87, ptr noundef %88, ptr noundef %90)
  store i32 %91, ptr %8, align 4, !tbaa !12
  %92 = icmp ne i32 %91, 0
  br i1 %92, label %93, label %95

93:                                               ; preds = %86
  %94 = load i32, ptr %8, align 4, !tbaa !12
  store i32 %94, ptr %4, align 4
  store i32 1, ptr %11, align 4
  br label %114

95:                                               ; preds = %86
  %96 = load ptr, ptr %5, align 8, !tbaa !42
  %97 = load ptr, ptr %96, align 8, !tbaa !8
  %98 = load ptr, ptr %6, align 8, !tbaa !8
  %99 = icmp ult ptr %97, %98
  br i1 %99, label %100, label %113

100:                                              ; preds = %95
  %101 = call noalias ptr @calloc(i64 noundef 1, i64 noundef 104) #10
  %102 = load ptr, ptr %10, align 8, !tbaa !38
  %103 = getelementptr inbounds nuw %struct.mbedtls_x509_crl_entry, ptr %102, i32 0, i32 4
  store ptr %101, ptr %103, align 8, !tbaa !39
  %104 = load ptr, ptr %10, align 8, !tbaa !38
  %105 = getelementptr inbounds nuw %struct.mbedtls_x509_crl_entry, ptr %104, i32 0, i32 4
  %106 = load ptr, ptr %105, align 8, !tbaa !39
  %107 = icmp eq ptr %106, null
  br i1 %107, label %108, label %109

108:                                              ; preds = %100
  store i32 -10368, ptr %4, align 4
  store i32 1, ptr %11, align 4
  br label %114

109:                                              ; preds = %100
  %110 = load ptr, ptr %10, align 8, !tbaa !38
  %111 = getelementptr inbounds nuw %struct.mbedtls_x509_crl_entry, ptr %110, i32 0, i32 4
  %112 = load ptr, ptr %111, align 8, !tbaa !39
  store ptr %112, ptr %10, align 8, !tbaa !38
  br label %113

113:                                              ; preds = %109, %95
  store i32 0, ptr %11, align 4
  br label %114

114:                                              ; preds = %113, %108, %93, %84, %75, %53
  call void @llvm.lifetime.end.p0(i64 8, ptr %13) #9
  call void @llvm.lifetime.end.p0(i64 8, ptr %12) #9
  %115 = load i32, ptr %11, align 4
  switch i32 %115, label %118 [
    i32 0, label %116
  ]

116:                                              ; preds = %114
  br label %36, !llvm.loop !51

117:                                              ; preds = %36
  store i32 0, ptr %4, align 4
  store i32 1, ptr %11, align 4
  br label %118

118:                                              ; preds = %117, %114, %29, %28, %19
  call void @llvm.lifetime.end.p0(i64 8, ptr %10) #9
  call void @llvm.lifetime.end.p0(i64 8, ptr %9) #9
  call void @llvm.lifetime.end.p0(i64 4, ptr %8) #9
  %119 = load i32, ptr %4, align 4
  ret i32 %119
}