; Function Attrs: nounwind uwtable
define internal fastcc i32 @x509_get_entries(ptr noundef nonnull %0, ptr noundef %1, ptr noundef %2) unnamed_addr #0 {
  %4 = alloca i64, align 8
  %5 = alloca i64, align 8
  %6 = alloca i64, align 8
  call void @llvm.lifetime.start.p0(i64 8, ptr nonnull %5) #10
  %7 = load ptr, ptr %0, align 8, !tbaa !21
  %8 = icmp eq ptr %7, %1
  br i1 %8, label %.loopexit, label %9

9:                                                ; preds = %3
  %10 = call i32 @mbedtls_asn1_get_tag(ptr noundef nonnull %0, ptr noundef %1, ptr noundef nonnull %5, i32 noundef 48) #10
  switch i32 %10, label %11 [
    i32 0, label %12
    i32 -98, label %.loopexit
  ]

11:                                               ; preds = %9
  br label %.loopexit

12:                                               ; preds = %9
  %13 = load ptr, ptr %0, align 8, !tbaa !21
  %14 = load i64, ptr %5, align 8, !tbaa !24
  %15 = getelementptr inbounds nuw i8, ptr %13, i64 %14
  %.not = icmp eq i64 %14, 0
  br i1 %.not, label %.loopexit, label %.lr.ph.preheader

.lr.ph.preheader:                                 ; preds = %12
  call void @llvm.lifetime.start.p0(i64 8, ptr nonnull %6) #10
  %16 = load i8, ptr %13, align 1, !tbaa !40
  %17 = zext i8 %16 to i32
  store i32 %17, ptr %2, align 8, !tbaa !41
  %18 = call i32 @mbedtls_asn1_get_tag(ptr noundef nonnull %0, ptr noundef nonnull %15, ptr noundef nonnull %6, i32 noundef 48) #10
  %.not4973 = icmp eq i32 %18, 0
  br i1 %.not4973, label %.lr.ph75, label %.thread

.lr.ph75:                                         ; preds = %.lr.ph.preheader, %.lr.ph
  %.0386374 = phi ptr [ %53, %.lr.ph ], [ %2, %.lr.ph.preheader ]
  %19 = load ptr, ptr %0, align 8, !tbaa !21
  %20 = getelementptr inbounds nuw i8, ptr %.0386374, i64 16
  store ptr %19, ptr %20, align 8, !tbaa !42
  %21 = load i64, ptr %6, align 8, !tbaa !24
  %22 = getelementptr inbounds nuw i8, ptr %.0386374, i64 8
  store i64 %21, ptr %22, align 8, !tbaa !43
  %23 = getelementptr inbounds nuw i8, ptr %19, i64 %21
  %24 = getelementptr inbounds nuw i8, ptr %.0386374, i64 24
  %25 = call i32 @mbedtls_x509_get_serial(ptr noundef nonnull %0, ptr noundef %23, ptr noundef nonnull %24) #10
  %.not50 = icmp eq i32 %25, 0
  br i1 %.not50, label %26, label %.thread

26:                                               ; preds = %.lr.ph75
  %27 = getelementptr inbounds nuw i8, ptr %.0386374, i64 48
  %28 = call i32 @mbedtls_x509_get_time(ptr noundef nonnull %0, ptr noundef %23, ptr noundef nonnull %27) #10
  %.not51 = icmp eq i32 %28, 0
  br i1 %.not51, label %29, label %.thread

29:                                               ; preds = %26
  call void @llvm.lifetime.start.p0(i64 8, ptr nonnull %4) #10
  store i64 0, ptr %4, align 8, !tbaa !24
  %30 = load ptr, ptr %0, align 8, !tbaa !21
  %.not.i = icmp ugt ptr %23, %30
  br i1 %.not.i, label %31, label %x509_get_crl_entry_ext.exit.thread

31:                                               ; preds = %29
  %32 = getelementptr inbounds nuw i8, ptr %.0386374, i64 72
  %33 = load i8, ptr %30, align 1, !tbaa !40
  %34 = zext i8 %33 to i32
  store i32 %34, ptr %32, align 8, !tbaa !44
  %35 = getelementptr inbounds nuw i8, ptr %.0386374, i64 88
  store ptr %30, ptr %35, align 8, !tbaa !33
  %36 = getelementptr inbounds nuw i8, ptr %.0386374, i64 80
  %37 = call i32 @mbedtls_asn1_get_tag(ptr noundef nonnull %0, ptr noundef nonnull %23, ptr noundef nonnull %36, i32 noundef 48) #10
  switch i32 %37, label %x509_get_crl_entry_ext.exit [
    i32 0, label %39
    i32 -98, label %38
  ]

38:                                               ; preds = %31
  store ptr null, ptr %35, align 8, !tbaa !33
  br label %x509_get_crl_entry_ext.exit.thread

39:                                               ; preds = %31
  %40 = load ptr, ptr %0, align 8, !tbaa !21
  %41 = load i64, ptr %36, align 8, !tbaa !31
  %42 = getelementptr inbounds nuw i8, ptr %40, i64 %41
  %.not36.i = icmp eq i64 %41, 0
  br i1 %.not36.i, label %._crit_edge.i, label %.lr.ph.i

.lr.ph.i:                                         ; preds = %39, %44
  %43 = call i32 @mbedtls_asn1_get_tag(ptr noundef nonnull %0, ptr noundef nonnull %42, ptr noundef nonnull %4, i32 noundef 48) #10
  %.not33.i = icmp eq i32 %43, 0
  br i1 %.not33.i, label %44, label %x509_get_crl_entry_ext.exit

44:                                               ; preds = %.lr.ph.i
  %45 = load i64, ptr %4, align 8, !tbaa !24
  %46 = load ptr, ptr %0, align 8, !tbaa !21
  %47 = getelementptr inbounds nuw i8, ptr %46, i64 %45
  store ptr %47, ptr %0, align 8, !tbaa !21
  %48 = icmp ult ptr %47, %42
  br i1 %48, label %.lr.ph.i, label %._crit_edge.i, !llvm.loop !45

._crit_edge.i:                                    ; preds = %44, %39
  %.lcssa.i = phi ptr [ %40, %39 ], [ %47, %44 ]
  %.not32.i = icmp eq ptr %.lcssa.i, %42
  br i1 %.not32.i, label %x509_get_crl_entry_ext.exit.thread, label %x509_get_crl_entry_ext.exit.thread55

x509_get_crl_entry_ext.exit.thread55:             ; preds = %._crit_edge.i
  call void @llvm.lifetime.end.p0(i64 8, ptr nonnull %4) #10
  br label %.thread

x509_get_crl_entry_ext.exit.thread:               ; preds = %38, %29, %._crit_edge.i
  call void @llvm.lifetime.end.p0(i64 8, ptr nonnull %4) #10
  br label %49

x509_get_crl_entry_ext.exit:                      ; preds = %.lr.ph.i, %31
  %.0.i.in = phi i32 [ %37, %31 ], [ %43, %.lr.ph.i ]
  %.0.i = add nsw i32 %.0.i.in, -9472
  call void @llvm.lifetime.end.p0(i64 8, ptr nonnull %4) #10
  %.not52 = icmp eq i32 %.0.i, 0
  br i1 %.not52, label %49, label %.thread

49:                                               ; preds = %x509_get_crl_entry_ext.exit.thread, %x509_get_crl_entry_ext.exit
  %50 = load ptr, ptr %0, align 8, !tbaa !21
  %51 = icmp ult ptr %50, %15
  br i1 %51, label %52, label %.loopexit.loopexit

52:                                               ; preds = %49
  %53 = call noalias dereferenceable_or_null(104) ptr @calloc(i64 noundef 1, i64 noundef 104) #11
  %54 = getelementptr inbounds nuw i8, ptr %.0386374, i64 96
  store ptr %53, ptr %54, align 8, !tbaa !37
  %55 = icmp eq ptr %53, null
  br i1 %55, label %.thread, label %.lr.ph

.thread:                                          ; preds = %52, %x509_get_crl_entry_ext.exit, %26, %.lr.ph75, %.lr.ph, %.lr.ph.preheader, %x509_get_crl_entry_ext.exit.thread55
  %.2.ph = phi i32 [ -9574, %x509_get_crl_entry_ext.exit.thread55 ], [ %18, %.lr.ph.preheader ], [ %58, %.lr.ph ], [ %25, %.lr.ph75 ], [ %28, %26 ], [ %.0.i, %x509_get_crl_entry_ext.exit ], [ -10368, %52 ]
  call void @llvm.lifetime.end.p0(i64 8, ptr nonnull %6) #10
  br label %.loopexit

.lr.ph:                                           ; preds = %52
  call void @llvm.lifetime.end.p0(i64 8, ptr nonnull %6) #10
  call void @llvm.lifetime.start.p0(i64 8, ptr nonnull %6) #10
  %56 = load i8, ptr %50, align 1, !tbaa !40
  %57 = zext i8 %56 to i32
  store i32 %57, ptr %53, align 8, !tbaa !41
  %58 = call i32 @mbedtls_asn1_get_tag(ptr noundef nonnull %0, ptr noundef nonnull %15, ptr noundef nonnull %6, i32 noundef 48) #10
  %.not49 = icmp eq i32 %58, 0
  br i1 %.not49, label %.lr.ph75, label %.thread

.loopexit.loopexit:                               ; preds = %49
  call void @llvm.lifetime.end.p0(i64 8, ptr nonnull %6) #10
  br label %.loopexit

.loopexit:                                        ; preds = %.loopexit.loopexit, %12, %.thread, %9, %3, %11
  %.0 = phi i32 [ %10, %11 ], [ 0, %3 ], [ 0, %9 ], [ %.2.ph, %.thread ], [ 0, %12 ], [ 0, %.loopexit.loopexit ]
  call void @llvm.lifetime.end.p0(i64 8, ptr nonnull %5) #10
  ret i32 %.0
}